; Function Attrs: nounwind sspstrong uwtable
define internal range(i64 0, 21) i64 @rb_io_buffer_valid_p(i64 noundef %0) #0 {
  %2 = tail call ptr @rb_check_typeddata(i64 noundef %0, ptr noundef nonnull @rb_io_buffer_type) #25
  %3 = getelementptr inbounds nuw i8, ptr %2, i64 24
  %4 = load i64, ptr %3, align 8, !tbaa !7
  %.not.i = icmp eq i64 %4, 4
  br i1 %.not.i, label %io_buffer_validate.exit.thread, label %io_buffer_validate.exit

io_buffer_validate.exit:                          ; preds = %1
  %5 = load ptr, ptr %2, align 8, !tbaa !14
  %6 = getelementptr inbounds nuw i8, ptr %2, i64 8
  %7 = load i64, ptr %6, align 8, !tbaa !16
  %8 = tail call fastcc i32 @io_buffer_validate_slice(i64 noundef %4, ptr noundef %5, i64 noundef %7)
  %.fr = freeze i32 %8
  %.not = icmp eq i32 %.fr, 0
  %spec.select = select i1 %.not, i64 0, i64 20
  br label %io_buffer_validate.exit.thread

io_buffer_validate.exit.thread:                   ; preds = %io_buffer_validate.exit, %1
  %9 = phi i64 [ 20, %1 ], [ %spec.select, %io_buffer_validate.exit ]
  ret i64 %9
}